target datalayout = "e-m:e-p270:32:32-p271:32:32-p272:64:64-i64:64-i128:128-f80:128-n8:16:32:64-S128"
target triple = "x86_64-pc-linux-gnu"

; Function Attrs: norecurse ssp uwtable
define internal void @"_ZN6open3d1t9pipelines6kernelL30ComputePoseDopplerICPKernelCPUIfZZZZNS2_24ComputePoseDopplerICPCPUERKNS_4core6TensorES7_S7_S7_S7_S7_RS5_RfRiRKNS4_5DtypeERKNS4_6DeviceES7_S7_S7_S7_dbdRKNS1_12registration12RobustKernelESK_dENK3$_0clEvENKUlvE_clEvENKUlvE_clEvEUlfE5_ZZZZNS2_24ComputePoseDopplerICPCPUES7_S7_S7_S7_S7_S7_S8_S9_SA_SD_SG_S7_S7_S7_S7_dbdSK_SK_dENKSL_clEvENKSM_clEvENKSN_clEvEUlfE6_EEvPKT_SS_SS_SS_SS_PKlSS_SS_SS_bSQ_SQ_SQ_SQ_iPSQ_T0_T1_.omp_outlined.omp.reduction.reduction_func"(ptr noundef %0, ptr noundef %1) #26 {
  %3 = alloca ptr, align 8
  %4 = alloca ptr, align 8
  store ptr %0, ptr %3, align 8, !tbaa !44
  store ptr %1, ptr %4, align 8, !tbaa !44
  %5 = load ptr, ptr %3, align 8
  %6 = load ptr, ptr %4, align 8
  %7 = getelementptr inbounds [1 x ptr], ptr %6, i64 0, i64 0
  %8 = load ptr, ptr %7, align 8
  %9 = getelementptr inbounds [1 x ptr], ptr %5, i64 0, i64 0
  %10 = load ptr, ptr %9, align 8
  %11 = getelementptr float, ptr %10, i64 29
  %12 = icmp eq ptr %10, %11
  br i1 %12, label %22, label %13

13:                                               ; preds = %13, %2
  %14 = phi ptr [ %8, %2 ], [ %20, %13 ]
  %15 = phi ptr [ %10, %2 ], [ %19, %13 ]
  %16 = load float, ptr %15, align 4, !tbaa !13
  %17 = load float, ptr %14, align 4, !tbaa !13
  %18 = fadd float %16, %17
  store float %18, ptr %15, align 4, !tbaa !13
  %19 = getelementptr float, ptr %15, i32 1
  %20 = getelementptr float, ptr %14, i32 1
  %21 = icmp eq ptr %19, %11
  br i1 %21, label %22, label %13

22:                                               ; preds = %13, %2
  ret void
}